(dp0
S'METTS MARK'
p1
(dp2
S'to_messages'
p3
I807
sS'deferral_payments'
p4
S'NaN'
p5
sS'email_address_indicator'
p6
F1.0
sS'restricted_stock_indicator'
p7
F1.0
sS'expenses'
p8
I94299
sS'poi'
p9
I00
sS'long_term_incentive'
p10
g5
sS'expenses_indicator'
p11
F1.0
sS'from_poi_to_this_person'
p12
I38
sS'deferred_income'
p13
g5
sS'other_indicator'
p14
F1.0
sS'restricted_stock_deferred'
p15
g5
sS'shared_receipt_with_poi'
p16
I702
sS'loan_advances'
p17
g5
sS'from_messages'
p18
I29
sS'other'
p19
I1740
sS'director_fees'
p20
g5
sS'bonus'
p21
I600000
sS'total_stock_value_indicator'
p22
F1.0
sS'total_stock_value'
p23
I585062
sS'total_payments_indicator'
p24
F1.0
sS'from_this_person_to_poi'
p25
I1
sS'restricted_stock'
p26
I585062
sS'exercised_stock_options_indicator'
p27
F0.0
sS'salary'
p28
I365788
sS'total_payments'
p29
I1061827
sS'salary_indicator'
p30
F1.0
sS'exercised_stock_options'
p31
g5
ssS'BAXTER JOHN C'
p32
(dp33
g3
g5
sg4
I1295738
sg6
F0.0
sg7
F1.0
sg8
I11200
sg9
I00
sg10
I1586055
sg11
F1.0
sg12
g5
sg13
I-1386055
sg14
F1.0
sg15
g5
sg16
g5
sg17
g5
sg18
g5
sg19
I2660303
sg20
g5
sg21
I1200000
sg22
F1.0
sg23
I10623258
sg24
F1.0
sg25
g5
sg26
I3942714
sg27
F1.0
sg28
I267102
sg29
I5634343
sg30
F1.0
sg31
I6680544
ssS'ELLIOTT STEVEN'
p34
(dp35
g3
g5
sg4
g5
sg6
F1.0
sg7
F1.0
sg8
I78552
sg9
I00
sg10
g5
sg11
F1.0
sg12
g5
sg13
I-400729
sg14
F1.0
sg15
g5
sg16
g5
sg17
g5
sg18
g5
sg19
I12961
sg20
g5
sg21
I350000
sg22
F1.0
sg23
I6678735
sg24
F1.0
sg25
g5
sg26
I1788391
sg27
F1.0
sg28
I170941
sg29
I211725
sg30
F1.0
sg31
I4890344
ssS'CORDES WILLIAM R'
p36
(dp37
g3
I764
sg4
g5
sg6
F1.0
sg7
F1.0
sg8
g5
sg9
I00
sg10
g5
sg11
F0.0
sg12
I10
sg13
g5
sg14
F0.0
sg15
g5
sg16
I58
sg17
g5
sg18
I12
sg19
g5
sg20
g5
sg21
g5
sg22
F1.0
sg23
I1038185
sg24
F0.0
sg25
I0
sg26
I386335
sg27
F1.0
sg28
g5
sg29
g5
sg30
F0.0
sg31
I651850
ssS'HANNON KEVIN P'
p38
(dp39
g3
I1045
sg4
g5
sg6
F1.0
sg7
F1.0
sg8
I34039
sg9
I01
sg10
I1617011
sg11
F1.0
sg12
I32
sg13
I-3117011
sg14
F1.0
sg15
g5
sg16
I1035
sg17
g5
sg18
I32
sg19
I11350
sg20
g5
sg21
I1500000
sg22
F1.0
sg23
I6391065
sg24
F1.0
sg25
I21
sg26
I853064
sg27
F1.0
sg28
I243293
sg29
I288682
sg30
F1.0
sg31
I5538001
ssS'MORDAUNT KRISTINA M'
p40
(dp41
g3
g5
sg4
g5
sg6
F1.0
sg7
F1.0
sg8
I35018
sg9
I00
sg10
g5
sg11
F1.0
sg12
g5
sg13
g5
sg14
F1.0
sg15
g5
sg16
g5
sg17
g5
sg18
g5
sg19
I1411
sg20
g5
sg21
I325000
sg22
F1.0
sg23
I208510
sg24
F1.0
sg25
g5
sg26
I208510
sg27
F0.0
sg28
I267093
sg29
I628522
sg30
F1.0
sg31
g5
ssS'MEYER ROCKFORD G'
p42
(dp43
g3
I232
sg4
I1848227
sg6
F1.0
sg7
F1.0
sg8
g5
sg9
I00
sg10
g5
sg11
F0.0
sg12
I0
sg13
g5
sg14
F0.0
sg15
g5
sg16
I22
sg17
g5
sg18
I28
sg19
g5
sg20
g5
sg21
g5
sg22
F1.0
sg23
I955873
sg24
F1.0
sg25
I0
sg26
I462384
sg27
F1.0
sg28
g5
sg29
I1848227
sg30
F0.0
sg31
I493489
ssS'MCMAHON JEFFREY'
p44
(dp45
g3
I2355
sg4
g5
sg6
F1.0
sg7
F1.0
sg8
I137108
sg9
I00
sg10
I694862
sg11
F1.0
sg12
I58
sg13
g5
sg14
F1.0
sg15
g5
sg16
I2228
sg17
g5
sg18
I48
sg19
I297353
sg20
g5
sg21
I2600000
sg22
F1.0
sg23
I1662855
sg24
F1.0
sg25
I26
sg26
I558801
sg27
F1.0
sg28
I370448
sg29
I4099771
sg30
F1.0
sg31
I1104054
ssS'HORTON STANLEY C'
p46
(dp47
g3
I2350
sg4
I3131860
sg6
F1.0
sg7
F1.0
sg8
g5
sg9
I00
sg10
g5
sg11
F0.0
sg12
I44
sg13
g5
sg14
F0.0
sg15
g5
sg16
I1074
sg17
g5
sg18
I1073
sg19
g5
sg20
g5
sg21
g5
sg22
F1.0
sg23
I7256648
sg24
F1.0
sg25
I15
sg26
I2046079
sg27
F1.0
sg28
g5
sg29
I3131860
sg30
F0.0
sg31
I5210569
ssS'PIPER GREGORY F'
p48
(dp49
g3
I1238
sg4
I1130036
sg6
F1.0
sg7
F1.0
sg8
I43057
sg9
I00
sg10
g5
sg11
F1.0
sg12
I61
sg13
I-33333
sg14
F1.0
sg15
I-409554
sg16
I742
sg17
g5
sg18
I222
sg19
I778
sg20
g5
sg21
I400000
sg22
F1.0
sg23
I880290
sg24
F1.0
sg25
I48
sg26
I409554
sg27
F1.0
sg28
I197091
sg29
I1737629
sg30
F1.0
sg31
I880290
ssS'HUMPHREY GENE E'
p50
(dp51
g3
I128
sg4
I2964506
sg6
F1.0
sg7
F0.0
sg8
I4994
sg9
I00
sg10
g5
sg11
F1.0
sg12
I10
sg13
g5
sg14
F0.0
sg15
g5
sg16
I119
sg17
g5
sg18
I17
sg19
g5
sg20
g5
sg21
g5
sg22
F1.0
sg23
I2282768
sg24
F1.0
sg25
I17
sg26
g5
sg27
F1.0
sg28
I130724
sg29
I3100224
sg30
F1.0
sg31
I2282768
ssS'UMANOFF ADAM S'
p52
(dp53
g3
I111
sg4
g5
sg6
F1.0
sg7
F0.0
sg8
I53122
sg9
I00
sg10
g5
sg11
F1.0
sg12
I12
sg13
g5
sg14
F0.0
sg15
g5
sg16
I41
sg17
g5
sg18
I18
sg19
g5
sg20
g5
sg21
I788750
sg22
F0.0
sg23
g5
sg24
F1.0
sg25
I0
sg26
g5
sg27
F0.0
sg28
I288589
sg29
I1130461
sg30
F1.0
sg31
g5
ssS'BLACHMAN JEREMY M'
p54
(dp55
g3
I2475
sg4
g5
sg6
F1.0
sg7
F1.0
sg8
I84208
sg9
I00
sg10
I831809
sg11
F1.0
sg12
I25
sg13
g5
sg14
F1.0
sg15
g5
sg16
I2326
sg17
g5
sg18
I14
sg19
I272
sg20
g5
sg21
I850000
sg22
F1.0
sg23
I954354
sg24
F1.0
sg25
I2
sg26
I189041
sg27
F1.0
sg28
I248546
sg29
I2014835
sg30
F1.0
sg31
I765313
ssS'SUNDE MARTIN'
p56
(dp57
g3
I2647
sg4
g5
sg6
F1.0
sg7
F1.0
sg8
g5
sg9
I00
sg10
I476451
sg11
F0.0
sg12
I37
sg13
g5
sg14
F1.0
sg15
g5
sg16
I2565
sg17
g5
sg18
I38
sg19
I111122
sg20
g5
sg21
I700000
sg22
F1.0
sg23
I698920
sg24
F1.0
sg25
I13
sg26
I698920
sg27
F0.0
sg28
I257486
sg29
I1545059
sg30
F1.0
sg31
g5
ssS'GIBBS DANA R'
p58
(dp59
g3
I169
sg4
I504610
sg6
F1.0
sg7
F0.0
sg8
g5
sg9
I00
sg10
I461912
sg11
F0.0
sg12
I0
sg13
g5
sg14
F0.0
sg15
g5
sg16
I23
sg17
g5
sg18
I12
sg19
g5
sg20
g5
sg21
g5
sg22
F1.0
sg23
I2218275
sg24
F1.0
sg25
I0
sg26
g5
sg27
F1.0
sg28
g5
sg29
I966522
sg30
F0.0
sg31
I2218275
ssS'LOWRY CHARLES P'
p60
(dp61
g3
g5
sg4
g5
sg6
F0.0
sg7
F1.0
sg8
g5
sg9
I00
sg10
g5
sg11
F0.0
sg12
g5
sg13
g5
sg14
F0.0
sg15
I-153686
sg16
g5
sg17
g5
sg18
g5
sg19
g5
sg20
g5
sg21
g5
sg22
F1.0
sg23
I372205
sg24
F0.0
sg25
g5
sg26
I153686
sg27
F1.0
sg28
g5
sg29
g5
sg30
F0.0
sg31
I372205
ssS'COLWELL WESLEY'
p62
(dp63
g3
I1758
sg4
I27610
sg6
F1.0
sg7
F1.0
sg8
I16514
sg9
I01
sg10
g5
sg11
F1.0
sg12
I240
sg13
I-144062
sg14
F1.0
sg15
g5
sg16
I1132
sg17
g5
sg18
I40
sg19
I101740
sg20
g5
sg21
I1200000
sg22
F1.0
sg23
I698242
sg24
F1.0
sg25
I11
sg26
I698242
sg27
F0.0
sg28
I288542
sg29
I1490344
sg30
F1.0
sg31
g5
ssS'MULLER MARK S'
p64
(dp65
g3
I136
sg4
I842924
sg6
F1.0
sg7
F1.0
sg8
g5
sg9
I00
sg10
I1725545
sg11
F0.0
sg12
I12
sg13
I-719000
sg14
F1.0
sg15
g5
sg16
I114
sg17
g5
sg18
I16
sg19
I947
sg20
g5
sg21
I1100000
sg22
F1.0
sg23
I1416848
sg24
F1.0
sg25
I0
sg26
I360528
sg27
F1.0
sg28
I251654
sg29
I3202070
sg30
F1.0
sg31
I1056320
ssS'JACKSON CHARLENE R'
p66
(dp67
g3
I258
sg4
g5
sg6
F1.0
sg7
F1.0
sg8
I10181
sg9
I00
sg10
g5
sg11
F1.0
sg12
I25
sg13
g5
sg14
F1.0
sg15
g5
sg16
I117
sg17
g5
sg18
I56
sg19
I2435
sg20
g5
sg21
I250000
sg22
F1.0
sg23
I725735
sg24
F1.0
sg25
I19
sg26
I540672
sg27
F1.0
sg28
I288558
sg29
I551174
sg30
F1.0
sg31
I185063
ssS'WESTFAHL RICHARD K'
p68
(dp69
g3
g5
sg4
g5
sg6
F1.0
sg7
F1.0
sg8
I51870
sg9
I00
sg10
I256191
sg11
F1.0
sg12
g5
sg13
I-10800
sg14
F1.0
sg15
g5
sg16
g5
sg17
g5
sg18
g5
sg19
I401130
sg20
g5
sg21
g5
sg22
F1.0
sg23
I384930
sg24
F1.0
sg25
g5
sg26
I384930
sg27
F0.0
sg28
I63744
sg29
I762135
sg30
F1.0
sg31
g5
ssS'WALTERS GARETH W'
p70
(dp71
g3
g5
sg4
I53625
sg6
F0.0
sg7
F0.0
sg8
I33785
sg9
I00
sg10
g5
sg11
F1.0
sg12
g5
sg13
g5
sg14
F0.0
sg15
g5
sg16
g5
sg17
g5
sg18
g5
sg19
g5
sg20
g5
sg21
g5
sg22
F1.0
sg23
I1030329
sg24
F1.0
sg25
g5
sg26
g5
sg27
F1.0
sg28
g5
sg29
I87410
sg30
F0.0
sg31
I1030329
ssS'WALLS JR ROBERT H'
p72
(dp73
g3
I671
sg4
g5
sg6
F1.0
sg7
F1.0
sg8
I50936
sg9
I00
sg10
I540751
sg11
F1.0
sg12
I17
sg13
g5
sg14
F1.0
sg15
g5
sg16
I215
sg17
g5
sg18
I146
sg19
I2
sg20
g5
sg21
I850000
sg22
F1.0
sg23
I5898997
sg24
F1.0
sg25
I0
sg26
I1552453
sg27
F1.0
sg28
I357091
sg29
I1798780
sg30
F1.0
sg31
I4346544
ssS'KITCHEN LOUISE'
p74
(dp75
g3
I8305
sg4
g5
sg6
F1.0
sg7
F1.0
sg8
I5774
sg9
I00
sg10
g5
sg11
F1.0
sg12
I251
sg13
g5
sg14
F1.0
sg15
g5
sg16
I3669
sg17
g5
sg18
I1728
sg19
I93925
sg20
g5
sg21
I3100000
sg22
F1.0
sg23
I547143
sg24
F1.0
sg25
I194
sg26
I466101
sg27
F1.0
sg28
I271442
sg29
I3471141
sg30
F1.0
sg31
I81042
ssS'CHAN RONNIE'
p76
(dp77
g3
g5
sg4
g5
sg6
F0.0
sg7
F1.0
sg8
g5
sg9
I00
sg10
g5
sg11
F0.0
sg12
g5
sg13
I-98784
sg14
F0.0
sg15
I-32460
sg16
g5
sg17
g5
sg18
g5
sg19
g5
sg20
I98784
sg21
g5
sg22
F0.0
sg23
g5
sg24
F0.0
sg25
g5
sg26
I32460
sg27
F0.0
sg28
g5
sg29
g5
sg30
F0.0
sg31
g5
ssS'BELFER ROBERT'
p78
(dp79
g3
g5
sg4
I102500
sg6
F0.0
sg7
F0.0
sg8
g5
sg9
I00
sg10
g5
sg11
F0.0
sg12
g5
sg13
g5
sg14
F0.0
sg15
I-44093
sg16
g5
sg17
g5
sg18
g5
sg19
g5
sg20
I3285
sg21
g5
sg22
F1.0
sg23
I44093
sg24
F1.0
sg25
g5
sg26
g5
sg27
F1.0
sg28
g5
sg29
I102500
sg30
F0.0
sg31
I3285
ssS'SHANKMAN JEFFREY A'
p80
(dp81
g3
I3221
sg4
g5
sg6
F1.0
sg7
F1.0
sg8
I178979
sg9
I00
sg10
I554422
sg11
F1.0
sg12
I94
sg13
g5
sg14
F1.0
sg15
g5
sg16
I1730
sg17
g5
sg18
I2681
sg19
I1191
sg20
g5
sg21
I2000000
sg22
F1.0
sg23
I2072035
sg24
F1.0
sg25
I83
sg26
I630137
sg27
F1.0
sg28
I304110
sg29
I3038702
sg30
F1.0
sg31
I1441898
ssS'WODRASKA JOHN'
p82
(dp83
g3
g5
sg4
g5
sg6
F1.0
sg7
F0.0
sg8
g5
sg9
I00
sg10
g5
sg11
F0.0
sg12
g5
sg13
g5
sg14
F1.0
sg15
g5
sg16
g5
sg17
g5
sg18
g5
sg19
I189583
sg20
g5
sg21
g5
sg22
F0.0
sg23
g5
sg24
F1.0
sg25
g5
sg26
g5
sg27
F0.0
sg28
g5
sg29
I189583
sg30
F0.0
sg31
g5
ssS'BERGSIEKER RICHARD P'
p84
(dp85
g3
I383
sg4
g5
sg6
F1.0
sg7
F1.0
sg8
I59175
sg9
I00
sg10
I180250
sg11
F1.0
sg12
I4
sg13
I-485813
sg14
F1.0
sg15
g5
sg16
I233
sg17
g5
sg18
I59
sg19
I427316
sg20
g5
sg21
I250000
sg22
F1.0
sg23
I659249
sg24
F1.0
sg25
I0
sg26
I659249
sg27
F0.0
sg28
I187922
sg29
I618850
sg30
F1.0
sg31
g5
ssS'URQUHART JOHN A'
p86
(dp87
g3
g5
sg4
g5
sg6
F0.0
sg7
F0.0
sg8
I228656
sg9
I00
sg10
g5
sg11
F1.0
sg12
g5
sg13
I-36666
sg14
F0.0
sg15
g5
sg16
g5
sg17
g5
sg18
g5
sg19
g5
sg20
I36666
sg21
g5
sg22
F0.0
sg23
g5
sg24
F1.0
sg25
g5
sg26
g5
sg27
F0.0
sg28
g5
sg29
I228656
sg30
F0.0
sg31
g5
ssS'BIBI PHILIPPE A'
p88
(dp89
g3
I1607
sg4
g5
sg6
F1.0
sg7
F1.0
sg8
I38559
sg9
I00
sg10
I369721
sg11
F1.0
sg12
I23
sg13
g5
sg14
F1.0
sg15
g5
sg16
I1336
sg17
g5
sg18
I40
sg19
I425688
sg20
g5
sg21
I1000000
sg22
F1.0
sg23
I1843816
sg24
F1.0
sg25
I8
sg26
I378082
sg27
F1.0
sg28
I213625
sg29
I2047593
sg30
F1.0
sg31
I1465734
ssS'PIRO JIM'
p90
(dp91
g3
I58
sg4
g5
sg6
F1.0
sg7
F1.0
sg8
g5
sg9
I00
sg10
g5
sg11
F0.0
sg12
I0
sg13
g5
sg14
F0.0
sg15
g5
sg16
I3
sg17
g5
sg18
I16
sg19
g5
sg20
g5
sg21
g5
sg22
F1.0
sg23
I47304
sg24
F0.0
sg25
I1
sg26
I47304
sg27
F0.0
sg28
g5
sg29
g5
sg30
F0.0
sg31
g5
ssS'RIEKER PAULA H'
p92
(dp93
g3
I1328
sg4
I214678
sg6
F1.0
sg7
F1.0
sg8
I33271
sg9
I01
sg10
g5
sg11
F1.0
sg12
I35
sg13
I-100000
sg14
F1.0
sg15
g5
sg16
I1258
sg17
g5
sg18
I82
sg19
I1950
sg20
g5
sg21
I700000
sg22
F1.0
sg23
I1918887
sg24
F1.0
sg25
I48
sg26
I283649
sg27
F1.0
sg28
I249201
sg29
I1099100
sg30
F1.0
sg31
I1635238
ssS'WHALEY DAVID A'
p94
(dp95
g3
g5
sg4
g5
sg6
F0.0
sg7
F0.0
sg8
g5
sg9
I00
sg10
g5
sg11
F0.0
sg12
g5
sg13
g5
sg14
F0.0
sg15
g5
sg16
g5
sg17
g5
sg18
g5
sg19
g5
sg20
g5
sg21
g5
sg22
F1.0
sg23
I98718
sg24
F0.0
sg25
g5
sg26
g5
sg27
F1.0
sg28
g5
sg29
g5
sg30
F0.0
sg31
I98718
ssS'BECK SALLY W'
p96
(dp97
g3
I7315
sg4
g5
sg6
F1.0
sg7
F1.0
sg8
I37172
sg9
I00
sg10
g5
sg11
F1.0
sg12
I144
sg13
g5
sg14
F1.0
sg15
g5
sg16
I2639
sg17
g5
sg18
I4343
sg19
I566
sg20
g5
sg21
I700000
sg22
F1.0
sg23
I126027
sg24
F1.0
sg25
I386
sg26
I126027
sg27
F0.0
sg28
I231330
sg29
I969068
sg30
F1.0
sg31
g5
ssS'HAUG DAVID L'
p98
(dp99
g3
I573
sg4
g5
sg6
F1.0
sg7
F1.0
sg8
I475
sg9
I00
sg10
g5
sg11
F1.0
sg12
I4
sg13
g5
sg14
F0.0
sg15
g5
sg16
I471
sg17
g5
sg18
I19
sg19
g5
sg20
g5
sg21
g5
sg22
F1.0
sg23
I2217299
sg24
F1.0
sg25
I7
sg26
I2217299
sg27
F0.0
sg28
g5
sg29
I475
sg30
F0.0
sg31
g5
ssS'ECHOLS JOHN B'
p100
(dp101
g3
g5
sg4
g5
sg6
F1.0
sg7
F1.0
sg8
I21530
sg9
I00
sg10
I2234774
sg11
F1.0
sg12
g5
sg13
g5
sg14
F1.0
sg15
g5
sg16
g5
sg17
g5
sg18
g5
sg19
I53775
sg20
g5
sg21
I200000
sg22
F1.0
sg23
I1008941
sg24
F1.0
sg25
g5
sg26
I407503
sg27
F1.0
sg28
I182245
sg29
I2692324
sg30
F1.0
sg31
I601438
ssS'MENDELSOHN JOHN'
p102
(dp103
g3
g5
sg4
g5
sg6
F0.0
sg7
F0.0
sg8
I148
sg9
I00
sg10
g5
sg11
F1.0
sg12
g5
sg13
I-103750
sg14
F0.0
sg15
g5
sg16
g5
sg17
g5
sg18
g5
sg19
g5
sg20
I103750
sg21
g5
sg22
F0.0
sg23
g5
sg24
F1.0
sg25
g5
sg26
g5
sg27
F0.0
sg28
g5
sg29
I148
sg30
F0.0
sg31
g5
ssS'HICKERSON GARY J'
p104
(dp105
g3
I1320
sg4
g5
sg6
F1.0
sg7
F1.0
sg8
I98849
sg9
I00
sg10
I69223
sg11
F1.0
sg12
I40
sg13
g5
sg14
F1.0
sg15
g5
sg16
I900
sg17
g5
sg18
I27
sg19
I1936
sg20
g5
sg21
I1700000
sg22
F1.0
sg23
I441096
sg24
F1.0
sg25
I1
sg26
I441096
sg27
F0.0
sg28
I211788
sg29
I2081796
sg30
F1.0
sg31
g5
ssS'CLINE KENNETH W'
p106
(dp107
g3
g5
sg4
g5
sg6
F0.0
sg7
F1.0
sg8
g5
sg9
I00
sg10
g5
sg11
F0.0
sg12
g5
sg13
g5
sg14
F0.0
sg15
I-472568
sg16
g5
sg17
g5
sg18
g5
sg19
g5
sg20
g5
sg21
g5
sg22
F1.0
sg23
I189518
sg24
F0.0
sg25
g5
sg26
I662086
sg27
F0.0
sg28
g5
sg29
g5
sg30
F0.0
sg31
g5
ssS'LEWIS RICHARD'
p108
(dp109
g3
I952
sg4
g5
sg6
F1.0
sg7
F0.0
sg8
g5
sg9
I00
sg10
g5
sg11
F0.0
sg12
I10
sg13
g5
sg14
F0.0
sg15
g5
sg16
I739
sg17
g5
sg18
I26
sg19
g5
sg20
g5
sg21
g5
sg22
F1.0
sg23
I850477
sg24
F0.0
sg25
I0
sg26
g5
sg27
F1.0
sg28
g5
sg29
g5
sg30
F0.0
sg31
I850477
ssS'HAYES ROBERT E'
p110
(dp111
g3
I504
sg4
I7961
sg6
F1.0
sg7
F1.0
sg8
g5
sg9
I00
sg10
g5
sg11
F0.0
sg12
I16
sg13
g5
sg14
F0.0
sg15
g5
sg16
I50
sg17
g5
sg18
I12
sg19
g5
sg20
g5
sg21
g5
sg22
F1.0
sg23
I151418
sg24
F1.0
sg25
I0
sg26
I151418
sg27
F0.0
sg28
g5
sg29
I7961
sg30
F0.0
sg31
g5
ssS'KOPPER MICHAEL J'
p112
(dp113
g3
g5
sg4
g5
sg6
F1.0
sg7
F1.0
sg8
I118134
sg9
I01
sg10
I602671
sg11
F1.0
sg12
g5
sg13
g5
sg14
F1.0
sg15
g5
sg16
g5
sg17
g5
sg18
g5
sg19
I907502
sg20
g5
sg21
I800000
sg22
F1.0
sg23
I985032
sg24
F1.0
sg25
g5
sg26
I985032
sg27
F0.0
sg28
I224305
sg29
I2652612
sg30
F1.0
sg31
g5
ssS'LEFF DANIEL P'
p114
(dp115
g3
I2822
sg4
g5
sg6
F1.0
sg7
F1.0
sg8
g5
sg9
I00
sg10
I1387399
sg11
F0.0
sg12
I67
sg13
g5
sg14
F1.0
sg15
g5
sg16
I2672
sg17
g5
sg18
I63
sg19
I3083
sg20
g5
sg21
I1000000
sg22
F1.0
sg23
I360528
sg24
F1.0
sg25
I14
sg26
I360528
sg27
F0.0
sg28
I273746
sg29
I2664228
sg30
F1.0
sg31
g5
ssS'LAVORATO JOHN J'
p116
(dp117
g3
I7259
sg4
g5
sg6
F1.0
sg7
F1.0
sg8
I49537
sg9
I00
sg10
I2035380
sg11
F1.0
sg12
I528
sg13
g5
sg14
F1.0
sg15
g5
sg16
I3962
sg17
g5
sg18
I2585
sg19
I1552
sg20
g5
sg21
I8000000
sg22
F1.0
sg23
I5167144
sg24
F1.0
sg25
I411
sg26
I1008149
sg27
F1.0
sg28
I339288
sg29
I10425757
sg30
F1.0
sg31
I4158995
ssS'BERBERIAN DAVID'
p118
(dp119
g3
g5
sg4
g5
sg6
F1.0
sg7
F1.0
sg8
I11892
sg9
I00
sg10
g5
sg11
F1.0
sg12
g5
sg13
g5
sg14
F0.0
sg15
g5
sg16
g5
sg17
g5
sg18
g5
sg19
g5
sg20
g5
sg21
g5
sg22
F1.0
sg23
I2493616
sg24
F1.0
sg25
g5
sg26
I869220
sg27
F1.0
sg28
I216582
sg29
I228474
sg30
F1.0
sg31
I1624396
ssS'DETMERING TIMOTHY J'
p120
(dp121
g3
g5
sg4
I875307
sg6
F1.0
sg7
F1.0
sg8
I52255
sg9
I00
sg10
I415657
sg11
F1.0
sg12
g5
sg13
I-775241
sg14
F1.0
sg15
I-315068
sg16
g5
sg17
g5
sg18
g5
sg19
I1105
sg20
g5
sg21
I425000
sg22
F1.0
sg23
I2027865
sg24
F1.0
sg25
g5
sg26
I315068
sg27
F1.0
sg28
I210500
sg29
I1204583
sg30
F1.0
sg31
I2027865
ssS'WAKEHAM JOHN'
p122
(dp123
g3
g5
sg4
g5
sg6
F0.0
sg7
F0.0
sg8
I103773
sg9
I00
sg10
g5
sg11
F1.0
sg12
g5
sg13
g5
sg14
F0.0
sg15
g5
sg16
g5
sg17
g5
sg18
g5
sg19
g5
sg20
I109298
sg21
g5
sg22
F0.0
sg23
g5
sg24
F1.0
sg25
g5
sg26
g5
sg27
F0.0
sg28
g5
sg29
I213071
sg30
F0.0
sg31
g5
ssS'POWERS WILLIAM'
p124
(dp125
g3
I653
sg4
g5
sg6
F1.0
sg7
F0.0
sg8
g5
sg9
I00
sg10
g5
sg11
F0.0
sg12
I0
sg13
I-17500
sg14
F0.0
sg15
g5
sg16
I12
sg17
g5
sg18
I26
sg19
g5
sg20
I17500
sg21
g5
sg22
F0.0
sg23
g5
sg24
F0.0
sg25
I0
sg26
g5
sg27
F0.0
sg28
g5
sg29
g5
sg30
F0.0
sg31
g5
ssS'GOLD JOSEPH'
p126
(dp127
g3
g5
sg4
g5
sg6
F1.0
sg7
F1.0
sg8
g5
sg9
I00
sg10
I304805
sg11
F0.0
sg12
g5
sg13
g5
sg14
F1.0
sg15
g5
sg16
g5
sg17
g5
sg18
g5
sg19
I819288
sg20
g5
sg21
I750000
sg22
F1.0
sg23
I877611
sg24
F1.0
sg25
g5
sg26
I441096
sg27
F1.0
sg28
I272880
sg29
I2146973
sg30
F1.0
sg31
I436515
ssS'BANNANTINE JAMES M'
p128
(dp129
g3
I566
sg4
g5
sg6
F1.0
sg7
F1.0
sg8
I56301
sg9
I00
sg10
g5
sg11
F1.0
sg12
I39
sg13
I-5104
sg14
F1.0
sg15
I-560222
sg16
I465
sg17
g5
sg18
I29
sg19
I864523
sg20
g5
sg21
g5
sg22
F1.0
sg23
I5243487
sg24
F1.0
sg25
I0
sg26
I1757552
sg27
F1.0
sg28
I477
sg29
I916197
sg30
F1.0
sg31
I4046157
ssS'DUNCAN JOHN H'
p130
(dp131
g3
g5
sg4
g5
sg6
F0.0
sg7
F0.0
sg8
g5
sg9
I00
sg10
g5
sg11
F0.0
sg12
g5
sg13
I-25000
sg14
F0.0
sg15
g5
sg16
g5
sg17
g5
sg18
g5
sg19
g5
sg20
I102492
sg21
g5
sg22
F1.0
sg23
I371750
sg24
F1.0
sg25
g5
sg26
g5
sg27
F1.0
sg28
g5
sg29
I77492
sg30
F0.0
sg31
I371750
ssS'SHAPIRO RICHARD S'
p132
(dp133
g3
I15149
sg4
g5
sg6
F1.0
sg7
F1.0
sg8
I137767
sg9
I00
sg10
g5
sg11
F1.0
sg12
I74
sg13
g5
sg14
F1.0
sg15
g5
sg16
I4527
sg17
g5
sg18
I1215
sg19
I705
sg20
g5
sg21
I650000
sg22
F1.0
sg23
I987001
sg24
F1.0
sg25
I65
sg26
I379164
sg27
F1.0
sg28
I269076
sg29
I1057548
sg30
F1.0
sg31
I607837
ssS'SHERRIFF JOHN R'
p134
(dp135
g3
I3187
sg4
g5
sg6
F1.0
sg7
F1.0
sg8
g5
sg9
I00
sg10
I554422
sg11
F0.0
sg12
I28
sg13
g5
sg14
F1.0
sg15
g5
sg16
I2103
sg17
g5
sg18
I92
sg19
I1852186
sg20
g5
sg21
I1500000
sg22
F1.0
sg23
I3128982
sg24
F1.0
sg25
I23
sg26
I1293424
sg27
F1.0
sg28
I428780
sg29
I4335388
sg30
F1.0
sg31
I1835558
ssS'SHELBY REX'
p136
(dp137
g3
I225
sg4
g5
sg6
F1.0
sg7
F1.0
sg8
I22884
sg9
I01
sg10
g5
sg11
F1.0
sg12
I13
sg13
I-4167
sg14
F1.0
sg15
g5
sg16
I91
sg17
g5
sg18
I39
sg19
I1573324
sg20
g5
sg21
I200000
sg22
F1.0
sg23
I2493616
sg24
F1.0
sg25
I14
sg26
I869220
sg27
F1.0
sg28
I211844
sg29
I2003885
sg30
F1.0
sg31
I1624396
ssS'LEMAISTRE CHARLES'
p138
(dp139
g3
g5
sg4
g5
sg6
F0.0
sg7
F0.0
sg8
g5
sg9
I00
sg10
g5
sg11
F0.0
sg12
g5
sg13
I-25000
sg14
F0.0
sg15
g5
sg16
g5
sg17
g5
sg18
g5
sg19
g5
sg20
I112492
sg21
g5
sg22
F1.0
sg23
I412878
sg24
F1.0
sg25
g5
sg26
g5
sg27
F1.0
sg28
g5
sg29
I87492
sg30
F0.0
sg31
I412878
ssS'DEFFNER JOSEPH M'
p140
(dp141
g3
I714
sg4
g5
sg6
F1.0
sg7
F1.0
sg8
I41626
sg9
I00
sg10
I335349
sg11
F1.0
sg12
I115
sg13
g5
sg14
F1.0
sg15
g5
sg16
I552
sg17
g5
sg18
I74
sg19
I25553
sg20
g5
sg21
I600000
sg22
F1.0
sg23
I159211
sg24
F1.0
sg25
I4
sg26
I141833
sg27
F1.0
sg28
I206121
sg29
I1208649
sg30
F1.0
sg31
I17378
ssS'KISHKILL JOSEPH G'
p142
(dp143
g3
g5
sg4
g5
sg6
F1.0
sg7
F1.0
sg8
I116335
sg9
I00
sg10
g5
sg11
F1.0
sg12
g5
sg13
I-51042
sg14
F1.0
sg15
g5
sg16
g5
sg17
g5
sg18
g5
sg19
I465357
sg20
g5
sg21
g5
sg22
F1.0
sg23
I1034346
sg24
F1.0
sg25
g5
sg26
I1034346
sg27
F0.0
sg28
I174246
sg29
I704896
sg30
F1.0
sg31
g5
ssS'WHALLEY LAWRENCE G'
p144
(dp145
g3
I6019
sg4
g5
sg6
F1.0
sg7
F1.0
sg8
I57838
sg9
I00
sg10
I808346
sg11
F1.0
sg12
I186
sg13
g5
sg14
F1.0
sg15
g5
sg16
I3920
sg17
g5
sg18
I556
sg19
I301026
sg20
g5
sg21
I3000000
sg22
F1.0
sg23
I6079137
sg24
F1.0
sg25
I24
sg26
I2796177
sg27
F1.0
sg28
I510364
sg29
I4677574
sg30
F1.0
sg31
I3282960
ssS'MCCARTY DANNY J'
p146
(dp147
g3
I1433
sg4
g5
sg6
F1.0
sg7
F1.0
sg8
g5
sg9
I00
sg10
g5
sg11
F0.0
sg12
I25
sg13
g5
sg14
F0.0
sg15
g5
sg16
I508
sg17
g5
sg18
I215
sg19
g5
sg20
g5
sg21
g5
sg22
F1.0
sg23
I758931
sg24
F0.0
sg25
I2
sg26
I94556
sg27
F1.0
sg28
g5
sg29
g5
sg30
F0.0
sg31
I664375
ssS'MCCONNELL MICHAEL S'
p148
(dp149
g3
I3329
sg4
g5
sg6
F1.0
sg7
F1.0
sg8
I81364
sg9
I00
sg10
I554422
sg11
F1.0
sg12
I92
sg13
g5
sg14
F1.0
sg15
g5
sg16
I2189
sg17
g5
sg18
I2742
sg19
I540
sg20
g5
sg21
I1100000
sg22
F1.0
sg23
I3101279
sg24
F1.0
sg25
I194
sg26
I1478269
sg27
F1.0
sg28
I365038
sg29
I2101364
sg30
F1.0
sg31
I1623010
ssS'DELAINEY DAVID W'
p150
(dp151
g3
I3093
sg4
g5
sg6
F1.0
sg7
F1.0
sg8
I86174
sg9
I01
sg10
I1294981
sg11
F1.0
sg12
I66
sg13
g5
sg14
F1.0
sg15
g5
sg16
I2097
sg17
g5
sg18
I3069
sg19
I1661
sg20
g5
sg21
I3000000
sg22
F1.0
sg23
I3614261
sg24
F1.0
sg25
I609
sg26
I1323148
sg27
F1.0
sg28
I365163
sg29
I4747979
sg30
F1.0
sg31
I2291113
ssS'SULLIVAN-SHAKLOVITZ COLLEEN'
p152
(dp153
g3
g5
sg4
I181993
sg6
F0.0
sg7
F0.0
sg8
g5
sg9
I00
sg10
I554422
sg11
F0.0
sg12
g5
sg13
g5
sg14
F1.0
sg15
g5
sg16
g5
sg17
g5
sg18
g5
sg19
I162
sg20
g5
sg21
I100000
sg22
F1.0
sg23
I1362375
sg24
F1.0
sg25
g5
sg26
g5
sg27
F1.0
sg28
I162779
sg29
I999356
sg30
F1.0
sg31
I1362375
ssS'WROBEL BRUCE'
p154
(dp155
g3
g5
sg4
g5
sg6
F0.0
sg7
F0.0
sg8
g5
sg9
I00
sg10
g5
sg11
F0.0
sg12
g5
sg13
g5
sg14
F0.0
sg15
g5
sg16
g5
sg17
g5
sg18
g5
sg19
g5
sg20
g5
sg21
g5
sg22
F1.0
sg23
I139130
sg24
F0.0
sg25
g5
sg26
g5
sg27
F1.0
sg28
g5
sg29
g5
sg30
F0.0
sg31
I139130
ssS'LINDHOLM TOD A'
p156
(dp157
g3
g5
sg4
I204075
sg6
F1.0
sg7
F1.0
sg8
I57727
sg9
I00
sg10
I175000
sg11
F1.0
sg12
g5
sg13
g5
sg14
F1.0
sg15
g5
sg16
g5
sg17
g5
sg18
g5
sg19
I2630
sg20
g5
sg21
I200000
sg22
F1.0
sg23
I3064208
sg24
F1.0
sg25
g5
sg26
I514847
sg27
F1.0
sg28
I236457
sg29
I875889
sg30
F1.0
sg31
I2549361
ssS'MEYER JEROME J'
p158
(dp159
g3
g5
sg4
g5
sg6
F0.0
sg7
F0.0
sg8
I2151
sg9
I00
sg10
g5
sg11
F1.0
sg12
g5
sg13
I-38346
sg14
F0.0
sg15
g5
sg16
g5
sg17
g5
sg18
g5
sg19
g5
sg20
I38346
sg21
g5
sg22
F0.0
sg23
g5
sg24
F1.0
sg25
g5
sg26
g5
sg27
F0.0
sg28
g5
sg29
I2151
sg30
F0.0
sg31
g5
ssS'LAY KENNETH L'
p160
(dp161
g3
I4273
sg4
I202911
sg6
F1.0
sg7
F1.0
sg8
I99832
sg9
I01
sg10
I3600000
sg11
F1.0
sg12
I123
sg13
I-300000
sg14
F1.0
sg15
g5
sg16
I2411
sg17
I81525000
sg18
I36
sg19
I10359729
sg20
g5
sg21
I7000000
sg22
F1.0
sg23
I49110078
sg24
F1.0
sg25
I16
sg26
I14761694
sg27
F1.0
sg28
I1072321
sg29
I103559793
sg30
F1.0
sg31
I34348384
ssS'BUTTS ROBERT H'
p162
(dp163
g3
g5
sg4
g5
sg6
F1.0
sg7
F1.0
sg8
I9410
sg9
I00
sg10
I175000
sg11
F1.0
sg12
g5
sg13
I-75000
sg14
F1.0
sg15
g5
sg16
g5
sg17
g5
sg18
g5
sg19
I150656
sg20
g5
sg21
I750000
sg22
F1.0
sg23
I417619
sg24
F1.0
sg25
g5
sg26
I417619
sg27
F0.0
sg28
I261516
sg29
I1271582
sg30
F1.0
sg31
g5
ssS'OLSON CINDY K'
p164
(dp165
g3
I1184
sg4
I77716
sg6
F1.0
sg7
F1.0
sg8
I63791
sg9
I00
sg10
I100000
sg11
F1.0
sg12
I20
sg13
g5
sg14
F1.0
sg15
g5
sg16
I856
sg17
g5
sg18
I52
sg19
I972
sg20
g5
sg21
I750000
sg22
F1.0
sg23
I2606763
sg24
F1.0
sg25
I15
sg26
I969729
sg27
F1.0
sg28
I329078
sg29
I1321557
sg30
F1.0
sg31
I1637034
ssS'MCDONALD REBECCA'
p166
(dp167
g3
I894
sg4
g5
sg6
F1.0
sg7
F1.0
sg8
g5
sg9
I00
sg10
g5
sg11
F0.0
sg12
I54
sg13
g5
sg14
F0.0
sg15
g5
sg16
I720
sg17
g5
sg18
I13
sg19
g5
sg20
g5
sg21
g5
sg22
F1.0
sg23
I1691366
sg24
F0.0
sg25
I1
sg26
I934065
sg27
F1.0
sg28
g5
sg29
g5
sg30
F0.0
sg31
I757301
ssS'CUMBERLAND MICHAEL S'
p168
(dp169
g3
g5
sg4
g5
sg6
F0.0
sg7
F1.0
sg8
I22344
sg9
I00
sg10
I275000
sg11
F1.0
sg12
g5
sg13
g5
sg14
F1.0
sg15
g5
sg16
g5
sg17
g5
sg18
g5
sg19
I713
sg20
g5
sg21
I325000
sg22
F1.0
sg23
I207940
sg24
F1.0
sg25
g5
sg26
I207940
sg27
F0.0
sg28
I184899
sg29
I807956
sg30
F1.0
sg31
g5
ssS'GAHN ROBERT S'
p170
(dp171
g3
g5
sg4
I73122
sg6
F0.0
sg7
F1.0
sg8
I50080
sg9
I00
sg10
g5
sg11
F1.0
sg12
g5
sg13
I-1042
sg14
F1.0
sg15
g5
sg16
g5
sg17
g5
sg18
g5
sg19
I76547
sg20
g5
sg21
I509870
sg22
F1.0
sg23
I318607
sg24
F1.0
sg25
g5
sg26
I235370
sg27
F1.0
sg28
I192008
sg29
I900585
sg30
F1.0
sg31
I83237
ssS'MCCLELLAN GEORGE'
p172
(dp173
g3
I1744
sg4
g5
sg6
F1.0
sg7
F1.0
sg8
I228763
sg9
I00
sg10
g5
sg11
F1.0
sg12
I52
sg13
I-125000
sg14
F1.0
sg15
g5
sg16
I1469
sg17
g5
sg18
I49
sg19
I51587
sg20
g5
sg21
I900000
sg22
F1.0
sg23
I947861
sg24
F1.0
sg25
I0
sg26
I441096
sg27
F1.0
sg28
I263413
sg29
I1318763
sg30
F1.0
sg31
I506765
ssS'HERMANN ROBERT J'
p174
(dp175
g3
g5
sg4
g5
sg6
F1.0
sg7
F1.0
sg8
I48357
sg9
I00
sg10
I150000
sg11
F1.0
sg12
g5
sg13
I-280000
sg14
F1.0
sg15
g5
sg16
g5
sg17
g5
sg18
g5
sg19
I416441
sg20
g5
sg21
I700000
sg22
F1.0
sg23
I668132
sg24
F1.0
sg25
g5
sg26
I480632
sg27
F1.0
sg28
I262663
sg29
I1297461
sg30
F1.0
sg31
I187500
ssS'SCRIMSHAW MATTHEW'
p176
(dp177
g3
g5
sg4
g5
sg6
F1.0
sg7
F0.0
sg8
g5
sg9
I00
sg10
g5
sg11
F0.0
sg12
g5
sg13
g5
sg14
F0.0
sg15
g5
sg16
g5
sg17
g5
sg18
g5
sg19
g5
sg20
g5
sg21
g5
sg22
F1.0
sg23
I759557
sg24
F0.0
sg25
g5
sg26
g5
sg27
F1.0
sg28
g5
sg29
g5
sg30
F0.0
sg31
I759557
ssS'GATHMANN WILLIAM D'
p178
(dp179
g3
g5
sg4
g5
sg6
F0.0
sg7
F1.0
sg8
g5
sg9
I00
sg10
g5
sg11
F0.0
sg12
g5
sg13
g5
sg14
F0.0
sg15
I-72419
sg16
g5
sg17
g5
sg18
g5
sg19
g5
sg20
g5
sg21
g5
sg22
F1.0
sg23
I1945360
sg24
F0.0
sg25
g5
sg26
I264013
sg27
F1.0
sg28
g5
sg29
g5
sg30
F0.0
sg31
I1753766
ssS'HAEDICKE MARK E'
p180
(dp181
g3
I4009
sg4
I2157527
sg6
F1.0
sg7
F1.0
sg8
I76169
sg9
I00
sg10
I983346
sg11
F1.0
sg12
I180
sg13
I-934484
sg14
F1.0
sg15
I-329825
sg16
I1847
sg17
g5
sg18
I1941
sg19
I52382
sg20
g5
sg21
I1150000
sg22
F1.0
sg23
I803094
sg24
F1.0
sg25
I61
sg26
I524169
sg27
F1.0
sg28
I374125
sg29
I3859065
sg30
F1.0
sg31
I608750
ssS'BOWEN JR RAYMOND M'
p182
(dp183
g3
I1858
sg4
g5
sg6
F1.0
sg7
F1.0
sg8
I65907
sg9
I01
sg10
I974293
sg11
F1.0
sg12
I140
sg13
I-833
sg14
F1.0
sg15
g5
sg16
I1593
sg17
g5
sg18
I27
sg19
I1621
sg20
g5
sg21
I1350000
sg22
F1.0
sg23
I252055
sg24
F1.0
sg25
I15
sg26
I252055
sg27
F0.0
sg28
I278601
sg29
I2669589
sg30
F1.0
sg31
g5
ssS'GILLIS JOHN'
p184
(dp185
g3
g5
sg4
g5
sg6
F0.0
sg7
F1.0
sg8
g5
sg9
I00
sg10
g5
sg11
F0.0
sg12
g5
sg13
g5
sg14
F0.0
sg15
g5
sg16
g5
sg17
g5
sg18
g5
sg19
g5
sg20
g5
sg21
g5
sg22
F1.0
sg23
I85641
sg24
F0.0
sg25
g5
sg26
I75838
sg27
F1.0
sg28
g5
sg29
g5
sg30
F0.0
sg31
I9803
ssS'FITZGERALD JAY L'
p186
(dp187
g3
I936
sg4
g5
sg6
F1.0
sg7
F1.0
sg8
I23870
sg9
I00
sg10
I556416
sg11
F1.0
sg12
I1
sg13
g5
sg14
F1.0
sg15
g5
sg16
I723
sg17
g5
sg18
I16
sg19
I285414
sg20
g5
sg21
I350000
sg22
F1.0
sg23
I1621236
sg24
F1.0
sg25
I8
sg26
I956775
sg27
F1.0
sg28
I199157
sg29
I1414857
sg30
F1.0
sg31
I664461
ssS'MORAN MICHAEL P'
p188
(dp189
g3
I672
sg4
g5
sg6
F1.0
sg7
F1.0
sg8
g5
sg9
I00
sg10
g5
sg11
F0.0
sg12
I0
sg13
g5
sg14
F0.0
sg15
g5
sg16
I127
sg17
g5
sg18
I19
sg19
g5
sg20
g5
sg21
g5
sg22
F1.0
sg23
I221141
sg24
F0.0
sg25
I0
sg26
I161602
sg27
F1.0
sg28
g5
sg29
g5
sg30
F0.0
sg31
I59539
ssS'REDMOND BRIAN L'
p190
(dp191
g3
I1671
sg4
g5
sg6
F1.0
sg7
F1.0
sg8
I14689
sg9
I00
sg10
g5
sg11
F1.0
sg12
I204
sg13
g5
sg14
F0.0
sg15
g5
sg16
I1063
sg17
g5
sg18
I221
sg19
g5
sg20
g5
sg21
g5
sg22
F1.0
sg23
I7890324
sg24
F1.0
sg25
I49
sg26
I381285
sg27
F1.0
sg28
I96840
sg29
I111529
sg30
F1.0
sg31
I7509039
ssS'BAZELIDES PHILIP J'
p192
(dp193
g3
g5
sg4
I684694
sg6
F0.0
sg7
F0.0
sg8
g5
sg9
I00
sg10
I93750
sg11
F0.0
sg12
g5
sg13
g5
sg14
F1.0
sg15
g5
sg16
g5
sg17
g5
sg18
g5
sg19
I874
sg20
g5
sg21
g5
sg22
F1.0
sg23
I1599641
sg24
F1.0
sg25
g5
sg26
g5
sg27
F1.0
sg28
I80818
sg29
I860136
sg30
F1.0
sg31
I1599641
ssS'BELDEN TIMOTHY N'
p194
(dp195
g3
I7991
sg4
I2144013
sg6
F1.0
sg7
F1.0
sg8
I17355
sg9
I01
sg10
g5
sg11
F1.0
sg12
I228
sg13
I-2334434
sg14
F1.0
sg15
g5
sg16
I5521
sg17
g5
sg18
I484
sg19
I210698
sg20
g5
sg21
I5249999
sg22
F1.0
sg23
I1110705
sg24
F1.0
sg25
I108
sg26
I157569
sg27
F1.0
sg28
I213999
sg29
I5501630
sg30
F1.0
sg31
I953136
ssS'DURAN WILLIAM D'
p196
(dp197
g3
I904
sg4
g5
sg6
F1.0
sg7
F1.0
sg8
I25785
sg9
I00
sg10
I1105218
sg11
F1.0
sg12
I106
sg13
g5
sg14
F1.0
sg15
g5
sg16
I599
sg17
g5
sg18
I12
sg19
I1568
sg20
g5
sg21
I750000
sg22
F1.0
sg23
I1640910
sg24
F1.0
sg25
I3
sg26
I189041
sg27
F1.0
sg28
I210692
sg29
I2093263
sg30
F1.0
sg31
I1451869
ssS'THORN TERENCE H'
p198
(dp199
g3
I266
sg4
I16586
sg6
F1.0
sg7
F1.0
sg8
I46145
sg9
I00
sg10
I200000
sg11
F1.0
sg12
I0
sg13
g5
sg14
F1.0
sg15
g5
sg16
I73
sg17
g5
sg18
I41
sg19
I426629
sg20
g5
sg21
g5
sg22
F1.0
sg23
I4817796
sg24
F1.0
sg25
I0
sg26
I365320
sg27
F1.0
sg28
I222093
sg29
I911453
sg30
F1.0
sg31
I4452476
ssS'FASTOW ANDREW S'
p200
(dp201
g3
g5
sg4
g5
sg6
F1.0
sg7
F1.0
sg8
I55921
sg9
I01
sg10
I1736055
sg11
F1.0
sg12
g5
sg13
I-1386055
sg14
F1.0
sg15
g5
sg16
g5
sg17
g5
sg18
g5
sg19
I277464
sg20
g5
sg21
I1300000
sg22
F1.0
sg23
I1794412
sg24
F1.0
sg25
g5
sg26
I1794412
sg27
F0.0
sg28
I440698
sg29
I2424083
sg30
F1.0
sg31
g5
ssS'FOY JOE'
p202
(dp203
g3
I57
sg4
I181755
sg6
F1.0
sg7
F0.0
sg8
g5
sg9
I00
sg10
g5
sg11
F0.0
sg12
I0
sg13
g5
sg14
F0.0
sg15
g5
sg16
I2
sg17
g5
sg18
I13
sg19
g5
sg20
g5
sg21
g5
sg22
F1.0
sg23
I343434
sg24
F1.0
sg25
I0
sg26
g5
sg27
F1.0
sg28
g5
sg29
I181755
sg30
F0.0
sg31
I343434
ssS'CALGER CHRISTOPHER F'
p204
(dp205
g3
I2598
sg4
g5
sg6
F1.0
sg7
F1.0
sg8
I35818
sg9
I01
sg10
I375304
sg11
F1.0
sg12
I199
sg13
I-262500
sg14
F1.0
sg15
g5
sg16
I2188
sg17
g5
sg18
I144
sg19
I486
sg20
g5
sg21
I1250000
sg22
F1.0
sg23
I126027
sg24
F1.0
sg25
I25
sg26
I126027
sg27
F0.0
sg28
I240189
sg29
I1639297
sg30
F1.0
sg31
g5
ssS'RICE KENNETH D'
p206
(dp207
g3
I905
sg4
g5
sg6
F1.0
sg7
F1.0
sg8
I46950
sg9
I01
sg10
I1617011
sg11
F1.0
sg12
I42
sg13
I-3504386
sg14
F1.0
sg15
g5
sg16
I864
sg17
g5
sg18
I18
sg19
I174839
sg20
g5
sg21
I1750000
sg22
F1.0
sg23
I22542539
sg24
F1.0
sg25
I4
sg26
I2748364
sg27
F1.0
sg28
I420636
sg29
I505050
sg30
F1.0
sg31
I19794175
ssS'KAMINSKI WINCENTY J'
p208
(dp209
g3
I4607
sg4
g5
sg6
F1.0
sg7
F1.0
sg8
I83585
sg9
I00
sg10
I323466
sg11
F1.0
sg12
I41
sg13
g5
sg14
F1.0
sg15
g5
sg16
I583
sg17
g5
sg18
I14368
sg19
I4669
sg20
g5
sg21
I400000
sg22
F1.0
sg23
I976037
sg24
F1.0
sg25
I171
sg26
I126027
sg27
F1.0
sg28
I275101
sg29
I1086821
sg30
F1.0
sg31
I850010
ssS'LOCKHART EUGENE E'
p210
(dp211
g3
g5
sg4
g5
sg6
F0.0
sg7
F0.0
sg8
g5
sg9
I00
sg10
g5
sg11
F0.0
sg12
g5
sg13
g5
sg14
F0.0
sg15
g5
sg16
g5
sg17
g5
sg18
g5
sg19
g5
sg20
g5
sg21
g5
sg22
F0.0
sg23
g5
sg24
F0.0
sg25
g5
sg26
g5
sg27
F0.0
sg28
g5
sg29
g5
sg30
F0.0
sg31
g5
ssS'COX DAVID'
p212
(dp213
g3
I102
sg4
g5
sg6
F1.0
sg7
F1.0
sg8
I27861
sg9
I00
sg10
g5
sg11
F1.0
sg12
I0
sg13
I-41250
sg14
F1.0
sg15
g5
sg16
I71
sg17
g5
sg18
I33
sg19
I494
sg20
g5
sg21
I800000
sg22
F1.0
sg23
I495633
sg24
F1.0
sg25
I4
sg26
I378082
sg27
F1.0
sg28
I314288
sg29
I1101393
sg30
F1.0
sg31
I117551
ssS'OVERDYKE JR JERE C'
p214
(dp215
g3
g5
sg4
g5
sg6
F1.0
sg7
F1.0
sg8
I18834
sg9
I00
sg10
I135836
sg11
F1.0
sg12
g5
sg13
g5
sg14
F1.0
sg15
g5
sg16
g5
sg17
g5
sg18
g5
sg19
I176
sg20
g5
sg21
g5
sg22
F1.0
sg23
I7307594
sg24
F1.0
sg25
g5
sg26
I2041016
sg27
F1.0
sg28
I94941
sg29
I249787
sg30
F1.0
sg31
I5266578
ssS'PEREIRA PAULO V. FERRAZ'
p216
(dp217
g3
g5
sg4
g5
sg6
F0.0
sg7
F0.0
sg8
I27942
sg9
I00
sg10
g5
sg11
F1.0
sg12
g5
sg13
I-101250
sg14
F0.0
sg15
g5
sg16
g5
sg17
g5
sg18
g5
sg19
g5
sg20
I101250
sg21
g5
sg22
F0.0
sg23
g5
sg24
F1.0
sg25
g5
sg26
g5
sg27
F0.0
sg28
g5
sg29
I27942
sg30
F0.0
sg31
g5
ssS'STABLER FRANK'
p218
(dp219
g3
g5
sg4
g5
sg6
F1.0
sg7
F1.0
sg8
I16514
sg9
I00
sg10
g5
sg11
F1.0
sg12
g5
sg13
g5
sg14
F1.0
sg15
g5
sg16
g5
sg17
g5
sg18
g5
sg19
I356071
sg20
g5
sg21
I500000
sg22
F1.0
sg23
I511734
sg24
F1.0
sg25
g5
sg26
I511734
sg27
F0.0
sg28
I239502
sg29
I1112087
sg30
F1.0
sg31
g5
ssS'SKILLING JEFFREY K'
p220
(dp221
g3
I3627
sg4
g5
sg6
F1.0
sg7
F1.0
sg8
I29336
sg9
I01
sg10
I1920000
sg11
F1.0
sg12
I88
sg13
g5
sg14
F1.0
sg15
g5
sg16
I2042
sg17
g5
sg18
I108
sg19
I22122
sg20
g5
sg21
I5600000
sg22
F1.0
sg23
I26093672
sg24
F1.0
sg25
I30
sg26
I6843672
sg27
F1.0
sg28
I1111258
sg29
I8682716
sg30
F1.0
sg31
I19250000
ssS'BLAKE JR. NORMAN P'
p222
(dp223
g3
g5
sg4
g5
sg6
F0.0
sg7
F0.0
sg8
I1279
sg9
I00
sg10
g5
sg11
F1.0
sg12
g5
sg13
I-113784
sg14
F0.0
sg15
g5
sg16
g5
sg17
g5
sg18
g5
sg19
g5
sg20
I113784
sg21
g5
sg22
F0.0
sg23
g5
sg24
F1.0
sg25
g5
sg26
g5
sg27
F0.0
sg28
g5
sg29
I1279
sg30
F0.0
sg31
g5
ssS'SHERRICK JEFFREY B'
p224
(dp225
g3
I613
sg4
g5
sg6
F1.0
sg7
F1.0
sg8
g5
sg9
I00
sg10
g5
sg11
F0.0
sg12
I39
sg13
g5
sg14
F0.0
sg15
g5
sg16
I583
sg17
g5
sg18
I25
sg19
g5
sg20
g5
sg21
g5
sg22
F1.0
sg23
I1832468
sg24
F0.0
sg25
I18
sg26
I405999
sg27
F1.0
sg28
g5
sg29
g5
sg30
F0.0
sg31
I1426469
ssS'PRENTICE JAMES'
p226
(dp227
g3
g5
sg4
I564348
sg6
F1.0
sg7
F1.0
sg8
g5
sg9
I00
sg10
g5
sg11
F0.0
sg12
g5
sg13
g5
sg14
F0.0
sg15
g5
sg16
g5
sg17
g5
sg18
g5
sg19
g5
sg20
g5
sg21
g5
sg22
F1.0
sg23
I1095040
sg24
F1.0
sg25
g5
sg26
I208809
sg27
F1.0
sg28
g5
sg29
I564348
sg30
F0.0
sg31
I886231
ssS'GRAY RODNEY'
p228
(dp229
g3
g5
sg4
I93585
sg6
F0.0
sg7
F0.0
sg8
g5
sg9
I00
sg10
I365625
sg11
F0.0
sg12
g5
sg13
g5
sg14
F1.0
sg15
g5
sg16
g5
sg17
g5
sg18
g5
sg19
I680833
sg20
g5
sg21
g5
sg22
F0.0
sg23
g5
sg24
F1.0
sg25
g5
sg26
g5
sg27
F0.0
sg28
I6615
sg29
I1146658
sg30
F1.0
sg31
g5
ssS'PICKERING MARK R'
p230
(dp231
g3
I898
sg4
g5
sg6
F1.0
sg7
F0.0
sg8
I31653
sg9
I00
sg10
g5
sg11
F1.0
sg12
I7
sg13
g5
sg14
F0.0
sg15
g5
sg16
I728
sg17
I400000
sg18
I67
sg19
g5
sg20
g5
sg21
I300000
sg22
F1.0
sg23
I28798
sg24
F1.0
sg25
I0
sg26
g5
sg27
F1.0
sg28
I655037
sg29
I1386690
sg30
F1.0
sg31
I28798
ssS'THE TRAVEL AGENCY IN THE PARK'
p232
(dp233
g3
g5
sg4
g5
sg6
F0.0
sg7
F0.0
sg8
g5
sg9
I00
sg10
g5
sg11
F0.0
sg12
g5
sg13
g5
sg14
F1.0
sg15
g5
sg16
g5
sg17
g5
sg18
g5
sg19
I362096
sg20
g5
sg21
g5
sg22
F0.0
sg23
g5
sg24
F1.0
sg25
g5
sg26
g5
sg27
F0.0
sg28
g5
sg29
I362096
sg30
F0.0
sg31
g5
ssS'NOLES JAMES L'
p234
(dp235
g3
g5
sg4
I774401
sg6
F0.0
sg7
F1.0
sg8
g5
sg9
I00
sg10
g5
sg11
F0.0
sg12
g5
sg13
g5
sg14
F0.0
sg15
I-94556
sg16
g5
sg17
g5
sg18
g5
sg19
g5
sg20
g5
sg21
g5
sg22
F1.0
sg23
I368705
sg24
F1.0
sg25
g5
sg26
I463261
sg27
F0.0
sg28
g5
sg29
I774401
sg30
F0.0
sg31
g5
ssS'KEAN STEVEN J'
p236
(dp237
g3
I12754
sg4
g5
sg6
F1.0
sg7
F1.0
sg8
I41953
sg9
I00
sg10
I300000
sg11
F1.0
sg12
I140
sg13
g5
sg14
F1.0
sg15
g5
sg16
I3639
sg17
g5
sg18
I6759
sg19
I1231
sg20
g5
sg21
I1000000
sg22
F1.0
sg23
I6153642
sg24
F1.0
sg25
I387
sg26
I4131594
sg27
F1.0
sg28
I404338
sg29
I1747522
sg30
F1.0
sg31
I2022048
ssS'FOWLER PEGGY'
p238
(dp239
g3
I517
sg4
g5
sg6
F1.0
sg7
F1.0
sg8
g5
sg9
I00
sg10
g5
sg11
F0.0
sg12
I0
sg13
g5
sg14
F0.0
sg15
g5
sg16
I10
sg17
g5
sg18
I36
sg19
g5
sg20
g5
sg21
g5
sg22
F1.0
sg23
I1884748
sg24
F0.0
sg25
I0
sg26
I560170
sg27
F1.0
sg28
g5
sg29
g5
sg30
F0.0
sg31
I1324578
ssS'WASAFF GEORGE'
p240
(dp241
g3
I400
sg4
I831299
sg6
F1.0
sg7
F1.0
sg8
g5
sg9
I00
sg10
I200000
sg11
F0.0
sg12
I22
sg13
I-583325
sg14
F1.0
sg15
g5
sg16
I337
sg17
g5
sg18
I30
sg19
I1425
sg20
g5
sg21
I325000
sg22
F1.0
sg23
I2056427
sg24
F1.0
sg25
I7
sg26
I388167
sg27
F1.0
sg28
I259996
sg29
I1034395
sg30
F1.0
sg31
I1668260
ssS'WHITE JR THOMAS E'
p242
(dp243
g3
g5
sg4
g5
sg6
F1.0
sg7
F1.0
sg8
I81353
sg9
I00
sg10
g5
sg11
F1.0
sg12
g5
sg13
g5
sg14
F1.0
sg15
g5
sg16
g5
sg17
g5
sg18
g5
sg19
I1085463
sg20
g5
sg21
I450000
sg22
F1.0
sg23
I15144123
sg24
F1.0
sg25
g5
sg26
I13847074
sg27
F1.0
sg28
I317543
sg29
I1934359
sg30
F1.0
sg31
I1297049
ssS'CHRISTODOULOU DIOMEDES'
p244
(dp245
g3
g5
sg4
g5
sg6
F1.0
sg7
F1.0
sg8
g5
sg9
I00
sg10
g5
sg11
F0.0
sg12
g5
sg13
g5
sg14
F0.0
sg15
g5
sg16
g5
sg17
g5
sg18
g5
sg19
g5
sg20
g5
sg21
g5
sg22
F1.0
sg23
I6077885
sg24
F0.0
sg25
g5
sg26
I950730
sg27
F1.0
sg28
g5
sg29
g5
sg30
F0.0
sg31
I5127155
ssS'ALLEN PHILLIP K'
p246
(dp247
g3
I2902
sg4
I2869717
sg6
F1.0
sg7
F1.0
sg8
I13868
sg9
I00
sg10
I304805
sg11
F1.0
sg12
I47
sg13
I-3081055
sg14
F1.0
sg15
I-126027
sg16
I1407
sg17
g5
sg18
I2195
sg19
I152
sg20
g5
sg21
I4175000
sg22
F1.0
sg23
I1729541
sg24
F1.0
sg25
I65
sg26
I126027
sg27
F1.0
sg28
I201955
sg29
I4484442
sg30
F1.0
sg31
I1729541
ssS'SHARP VICTORIA T'
p248
(dp249
g3
I3136
sg4
I187469
sg6
F1.0
sg7
F1.0
sg8
I116337
sg9
I00
sg10
I422158
sg11
F1.0
sg12
I24
sg13
g5
sg14
F1.0
sg15
g5
sg16
I2477
sg17
g5
sg18
I136
sg19
I2401
sg20
g5
sg21
I600000
sg22
F1.0
sg23
I494136
sg24
F1.0
sg25
I6
sg26
I213063
sg27
F1.0
sg28
I248146
sg29
I1576511
sg30
F1.0
sg31
I281073
ssS'JAEDICKE ROBERT'
p250
(dp251
g3
g5
sg4
g5
sg6
F0.0
sg7
F1.0
sg8
g5
sg9
I00
sg10
g5
sg11
F0.0
sg12
g5
sg13
I-25000
sg14
F0.0
sg15
I-44093
sg16
g5
sg17
g5
sg18
g5
sg19
g5
sg20
I108750
sg21
g5
sg22
F1.0
sg23
I431750
sg24
F1.0
sg25
g5
sg26
I44093
sg27
F1.0
sg28
g5
sg29
I83750
sg30
F0.0
sg31
I431750
ssS'WINOKUR JR. HERBERT S'
p252
(dp253
g3
g5
sg4
g5
sg6
F0.0
sg7
F0.0
sg8
I1413
sg9
I00
sg10
g5
sg11
F1.0
sg12
g5
sg13
I-25000
sg14
F0.0
sg15
g5
sg16
g5
sg17
g5
sg18
g5
sg19
g5
sg20
I108579
sg21
g5
sg22
F0.0
sg23
g5
sg24
F1.0
sg25
g5
sg26
g5
sg27
F0.0
sg28
g5
sg29
I84992
sg30
F0.0
sg31
g5
ssS'BROWN MICHAEL'
p254
(dp255
g3
I1486
sg4
g5
sg6
F1.0
sg7
F0.0
sg8
I49288
sg9
I00
sg10
g5
sg11
F1.0
sg12
I13
sg13
g5
sg14
F0.0
sg15
g5
sg16
I761
sg17
g5
sg18
I41
sg19
g5
sg20
g5
sg21
g5
sg22
F0.0
sg23
g5
sg24
F1.0
sg25
I1
sg26
g5
sg27
F0.0
sg28
g5
sg29
I49288
sg30
F0.0
sg31
g5
ssS'BADUM JAMES P'
p256
(dp257
g3
g5
sg4
I178980
sg6
F0.0
sg7
F0.0
sg8
I3486
sg9
I00
sg10
g5
sg11
F1.0
sg12
g5
sg13
g5
sg14
F0.0
sg15
g5
sg16
g5
sg17
g5
sg18
g5
sg19
g5
sg20
g5
sg21
g5
sg22
F1.0
sg23
I257817
sg24
F1.0
sg25
g5
sg26
g5
sg27
F1.0
sg28
g5
sg29
I182466
sg30
F0.0
sg31
I257817
ssS'HUGHES JAMES A'
p258
(dp259
g3
I719
sg4
g5
sg6
F1.0
sg7
F1.0
sg8
g5
sg9
I00
sg10
g5
sg11
F0.0
sg12
I35
sg13
g5
sg14
F0.0
sg15
g5
sg16
I589
sg17
g5
sg18
I34
sg19
g5
sg20
g5
sg21
g5
sg22
F1.0
sg23
I1118394
sg24
F0.0
sg25
I5
sg26
I363428
sg27
F1.0
sg28
g5
sg29
g5
sg30
F0.0
sg31
I754966
ssS'REYNOLDS LAWRENCE'
p260
(dp261
g3
g5
sg4
I51365
sg6
F0.0
sg7
F1.0
sg8
I8409
sg9
I00
sg10
I156250
sg11
F1.0
sg12
g5
sg13
I-200000
sg14
F1.0
sg15
I-140264
sg16
g5
sg17
g5
sg18
g5
sg19
I202052
sg20
g5
sg21
I100000
sg22
F1.0
sg23
I4221891
sg24
F1.0
sg25
g5
sg26
I201483
sg27
F1.0
sg28
I76399
sg29
I394475
sg30
F1.0
sg31
I4160672
ssS'DIMICHELE RICHARD G'
p262
(dp263
g3
g5
sg4
g5
sg6
F1.0
sg7
F1.0
sg8
I35812
sg9
I00
sg10
I694862
sg11
F1.0
sg12
g5
sg13
g5
sg14
F1.0
sg15
g5
sg16
g5
sg17
g5
sg18
g5
sg19
I374689
sg20
g5
sg21
I1000000
sg22
F1.0
sg23
I8317782
sg24
F1.0
sg25
g5
sg26
I126027
sg27
F1.0
sg28
I262788
sg29
I2368151
sg30
F1.0
sg31
I8191755
ssS'BHATNAGAR SANJAY'
p264
(dp265
g3
I523
sg4
g5
sg6
F1.0
sg7
F1.0
sg8
g5
sg9
I00
sg10
g5
sg11
F0.0
sg12
I0
sg13
g5
sg14
F1.0
sg15
I-15456290
sg16
I463
sg17
g5
sg18
I29
sg19
I137864
sg20
I137864
sg21
g5
sg22
F0.0
sg23
S'NaN'
p266
sg24
F1.0
sg25
I1
sg26
I2604490
sg27
F1.0
sg28
g5
sg29
I15456290
sg30
F0.0
sg31
I2604490
ssS'CARTER REBECCA C'
p267
(dp268
g3
I312
sg4
g5
sg6
F1.0
sg7
F1.0
sg8
g5
sg9
I00
sg10
I75000
sg11
F0.0
sg12
I29
sg13
I-159792
sg14
F1.0
sg15
I-307301
sg16
I196
sg17
g5
sg18
I15
sg19
I540
sg20
g5
sg21
I300000
sg22
F0.0
sg23
g5
sg24
F1.0
sg25
I7
sg26
I307301
sg27
F0.0
sg28
I261809
sg29
I477557
sg30
F1.0
sg31
g5
ssS'BUCHANAN HAROLD G'
p269
(dp270
g3
I1088
sg4
g5
sg6
F1.0
sg7
F1.0
sg8
I600
sg9
I00
sg10
I304805
sg11
F1.0
sg12
I0
sg13
g5
sg14
F1.0
sg15
g5
sg16
I23
sg17
g5
sg18
I125
sg19
I1215
sg20
g5
sg21
I500000
sg22
F1.0
sg23
I1014505
sg24
F1.0
sg25
I0
sg26
I189041
sg27
F1.0
sg28
I248017
sg29
I1054637
sg30
F1.0
sg31
I825464
ssS'YEAP SOON'
p271
(dp272
g3
g5
sg4
g5
sg6
F0.0
sg7
F0.0
sg8
I55097
sg9
I00
sg10
g5
sg11
F1.0
sg12
g5
sg13
g5
sg14
F0.0
sg15
g5
sg16
g5
sg17
g5
sg18
g5
sg19
g5
sg20
g5
sg21
g5
sg22
F1.0
sg23
I192758
sg24
F1.0
sg25
g5
sg26
g5
sg27
F1.0
sg28
g5
sg29
I55097
sg30
F0.0
sg31
I192758
ssS'MURRAY JULIA H'
p273
(dp274
g3
I2192
sg4
g5
sg6
F1.0
sg7
F1.0
sg8
I57580
sg9
I00
sg10
I125000
sg11
F1.0
sg12
I11
sg13
g5
sg14
F1.0
sg15
g5
sg16
I395
sg17
g5
sg18
I45
sg19
I330
sg20
g5
sg21
I400000
sg22
F1.0
sg23
I597461
sg24
F1.0
sg25
I2
sg26
I196983
sg27
F1.0
sg28
I229284
sg29
I812194
sg30
F1.0
sg31
I400478
ssS'GARLAND C KEVIN'
p275
(dp276
g3
I209
sg4
g5
sg6
F1.0
sg7
F1.0
sg8
I48405
sg9
I00
sg10
I375304
sg11
F1.0
sg12
I10
sg13
g5
sg14
F1.0
sg15
g5
sg16
I178
sg17
g5
sg18
I44
sg19
I60814
sg20
g5
sg21
I850000
sg22
F1.0
sg23
I896153
sg24
F1.0
sg25
I27
sg26
I259907
sg27
F1.0
sg28
I231946
sg29
I1566469
sg30
F1.0
sg31
I636246
ssS'DODSON KEITH'
p277
(dp278
g3
I176
sg4
g5
sg6
F1.0
sg7
F0.0
sg8
I28164
sg9
I00
sg10
g5
sg11
F1.0
sg12
I10
sg13
g5
sg14
F1.0
sg15
g5
sg16
I114
sg17
g5
sg18
I14
sg19
I774
sg20
g5
sg21
I70000
sg22
F0.0
sg23
g5
sg24
F1.0
sg25
I3
sg26
g5
sg27
F0.0
sg28
I221003
sg29
I319941
sg30
F1.0
sg31
g5
ssS'YEAGER F SCOTT'
p279
(dp280
g3
g5
sg4
g5
sg6
F1.0
sg7
F1.0
sg8
I53947
sg9
I01
sg10
g5
sg11
F1.0
sg12
g5
sg13
g5
sg14
F1.0
sg15
g5
sg16
g5
sg17
g5
sg18
g5
sg19
I147950
sg20
g5
sg21
g5
sg22
F1.0
sg23
I11884758
sg24
F1.0
sg25
g5
sg26
I3576206
sg27
F1.0
sg28
I158403
sg29
I360300
sg30
F1.0
sg31
I8308552
ssS'HIRKO JOSEPH'
p281
(dp282
g3
g5
sg4
I10259
sg6
F1.0
sg7
F0.0
sg8
I77978
sg9
I01
sg10
g5
sg11
F1.0
sg12
g5
sg13
g5
sg14
F1.0
sg15
g5
sg16
g5
sg17
g5
sg18
g5
sg19
I2856
sg20
g5
sg21
g5
sg22
F1.0
sg23
I30766064
sg24
F1.0
sg25
g5
sg26
g5
sg27
F1.0
sg28
g5
sg29
I91093
sg30
F0.0
sg31
I30766064
ssS'DIETRICH JANET R'
p283
(dp284
g3
I2572
sg4
g5
sg6
F1.0
sg7
F1.0
sg8
I3475
sg9
I00
sg10
I556416
sg11
F1.0
sg12
I305
sg13
g5
sg14
F1.0
sg15
g5
sg16
I1902
sg17
g5
sg18
I63
sg19
I473
sg20
g5
sg21
I600000
sg22
F1.0
sg23
I1865087
sg24
F1.0
sg25
I14
sg26
I315068
sg27
F1.0
sg28
I250100
sg29
I1410464
sg30
F1.0
sg31
I1550019
ssS'DERRICK JR. JAMES V'
p285
(dp286
g3
I2181
sg4
g5
sg6
F1.0
sg7
F1.0
sg8
I51124
sg9
I00
sg10
I484000
sg11
F1.0
sg12
I64
sg13
I-1284000
sg14
F1.0
sg15
I-1787380
sg16
I1401
sg17
g5
sg18
I909
sg19
I7482
sg20
g5
sg21
I800000
sg22
F1.0
sg23
I8831913
sg24
F1.0
sg25
I20
sg26
I1787380
sg27
F1.0
sg28
I492375
sg29
I550981
sg30
F1.0
sg31
I8831913
ssS'FREVERT MARK A'
p287
(dp288
g3
I3275
sg4
I6426990
sg6
F1.0
sg7
F1.0
sg8
I86987
sg9
I00
sg10
I1617011
sg11
F1.0
sg12
I242
sg13
I-3367011
sg14
F1.0
sg15
g5
sg16
I2979
sg17
I2000000
sg18
I21
sg19
I7427621
sg20
g5
sg21
I2000000
sg22
F1.0
sg23
I14622185
sg24
F1.0
sg25
I6
sg26
I4188667
sg27
F1.0
sg28
I1060932
sg29
I17252530
sg30
F1.0
sg31
I10433518
ssS'PAI LOU L'
p289
(dp290
g3
g5
sg4
g5
sg6
F1.0
sg7
F1.0
sg8
I32047
sg9
I00
sg10
g5
sg11
F1.0
sg12
g5
sg13
g5
sg14
F1.0
sg15
g5
sg16
g5
sg17
g5
sg18
g5
sg19
I1829457
sg20
g5
sg21
I1000000
sg22
F1.0
sg23
I23817930
sg24
F1.0
sg25
g5
sg26
I8453763
sg27
F1.0
sg28
I261879
sg29
I3123383
sg30
F1.0
sg31
I15364167
ssS'BAY FRANKLIN R'
p291
(dp292
g3
g5
sg4
I260455
sg6
F1.0
sg7
F1.0
sg8
I129142
sg9
I00
sg10
g5
sg11
F1.0
sg12
g5
sg13
I-201641
sg14
F1.0
sg15
I-82782
sg16
g5
sg17
g5
sg18
g5
sg19
I69
sg20
g5
sg21
I400000
sg22
F1.0
sg23
I63014
sg24
F1.0
sg25
g5
sg26
I145796
sg27
F0.0
sg28
I239671
sg29
I827696
sg30
F1.0
sg31
g5
ssS'HAYSLETT RODERICK J'
p293
(dp294
g3
I2649
sg4
g5
sg6
F1.0
sg7
F1.0
sg8
g5
sg9
I00
sg10
g5
sg11
F0.0
sg12
I35
sg13
g5
sg14
F0.0
sg15
g5
sg16
I571
sg17
g5
sg18
I1061
sg19
g5
sg20
g5
sg21
g5
sg22
F1.0
sg23
I346663
sg24
F0.0
sg25
I38
sg26
I346663
sg27
F0.0
sg28
g5
sg29
g5
sg30
F0.0
sg31
g5
ssS'FUGH JOHN L'
p295
(dp296
g3
g5
sg4
I50591
sg6
F0.0
sg7
F0.0
sg8
g5
sg9
I00
sg10
g5
sg11
F0.0
sg12
g5
sg13
g5
sg14
F0.0
sg15
g5
sg16
g5
sg17
g5
sg18
g5
sg19
g5
sg20
g5
sg21
g5
sg22
F1.0
sg23
I176378
sg24
F1.0
sg25
g5
sg26
g5
sg27
F1.0
sg28
g5
sg29
I50591
sg30
F0.0
sg31
I176378
ssS'FALLON JAMES B'
p297
(dp298
g3
I1755
sg4
g5
sg6
F1.0
sg7
F1.0
sg8
I95924
sg9
I00
sg10
I374347
sg11
F1.0
sg12
I42
sg13
g5
sg14
F1.0
sg15
g5
sg16
I1604
sg17
g5
sg18
I75
sg19
I401481
sg20
g5
sg21
I2500000
sg22
F1.0
sg23
I2332399
sg24
F1.0
sg25
I37
sg26
I1392142
sg27
F1.0
sg28
I304588
sg29
I3676340
sg30
F1.0
sg31
I940257
ssS'KOENIG MARK E'
p299
(dp300
g3
I2374
sg4
g5
sg6
F1.0
sg7
F1.0
sg8
I127017
sg9
I01
sg10
I300000
sg11
F1.0
sg12
I53
sg13
g5
sg14
F1.0
sg15
g5
sg16
I2271
sg17
g5
sg18
I61
sg19
I150458
sg20
g5
sg21
I700000
sg22
F1.0
sg23
I1920055
sg24
F1.0
sg25
I15
sg26
I1248318
sg27
F1.0
sg28
I309946
sg29
I1587421
sg30
F1.0
sg31
I671737
ssS'SAVAGE FRANK'
p301
(dp302
g3
g5
sg4
g5
sg6
F0.0
sg7
F0.0
sg8
g5
sg9
I00
sg10
g5
sg11
F0.0
sg12
g5
sg13
I-121284
sg14
F0.0
sg15
g5
sg16
g5
sg17
g5
sg18
g5
sg19
g5
sg20
I125034
sg21
g5
sg22
F0.0
sg23
g5
sg24
F1.0
sg25
g5
sg26
g5
sg27
F0.0
sg28
g5
sg29
I3750
sg30
F0.0
sg31
g5
ssS'IZZO LAWRENCE L'
p303
(dp304
g3
I496
sg4
g5
sg6
F1.0
sg7
F1.0
sg8
I28093
sg9
I00
sg10
I312500
sg11
F1.0
sg12
I28
sg13
g5
sg14
F1.0
sg15
g5
sg16
I437
sg17
g5
sg18
I19
sg19
I1553729
sg20
g5
sg21
g5
sg22
F1.0
sg23
I5819980
sg24
F1.0
sg25
I5
sg26
I3654808
sg27
F1.0
sg28
I85274
sg29
I1979596
sg30
F1.0
sg31
I2165172
ssS'TILNEY ELIZABETH A'
p305
(dp306
g3
I460
sg4
g5
sg6
F1.0
sg7
F1.0
sg8
g5
sg9
I00
sg10
I275000
sg11
F0.0
sg12
I10
sg13
I-575000
sg14
F1.0
sg15
g5
sg16
I379
sg17
g5
sg18
I19
sg19
I152055
sg20
g5
sg21
I300000
sg22
F1.0
sg23
I1168042
sg24
F1.0
sg25
I11
sg26
I576792
sg27
F1.0
sg28
I247338
sg29
I399393
sg30
F1.0
sg31
I591250
ssS'MARTIN AMANDA K'
p307
(dp308
g3
I1522
sg4
I85430
sg6
F1.0
sg7
F0.0
sg8
I8211
sg9
I00
sg10
I5145434
sg11
F1.0
sg12
I8
sg13
g5
sg14
F1.0
sg15
g5
sg16
I477
sg17
g5
sg18
I230
sg19
I2818454
sg20
g5
sg21
g5
sg22
F1.0
sg23
I2070306
sg24
F1.0
sg25
I0
sg26
g5
sg27
F1.0
sg28
I349487
sg29
I8407016
sg30
F1.0
sg31
I2070306
ssS'BUY RICHARD B'
p309
(dp310
g3
I3523
sg4
I649584
sg6
F1.0
sg7
F1.0
sg8
g5
sg9
I00
sg10
I769862
sg11
F0.0
sg12
I156
sg13
I-694862
sg14
F1.0
sg15
g5
sg16
I2333
sg17
g5
sg18
I1053
sg19
I400572
sg20
g5
sg21
I900000
sg22
F1.0
sg23
I3444470
sg24
F1.0
sg25
I71
sg26
I901657
sg27
F1.0
sg28
I330546
sg29
I2355702
sg30
F1.0
sg31
I2542813
ssS'GRAMM WENDY L'
p311
(dp312
g3
g5
sg4
g5
sg6
F0.0
sg7
F0.0
sg8
g5
sg9
I00
sg10
g5
sg11
F0.0
sg12
g5
sg13
g5
sg14
F0.0
sg15
g5
sg16
g5
sg17
g5
sg18
g5
sg19
g5
sg20
I119292
sg21
g5
sg22
F0.0
sg23
g5
sg24
F1.0
sg25
g5
sg26
g5
sg27
F0.0
sg28
g5
sg29
I119292
sg30
F0.0
sg31
g5
ssS'CAUSEY RICHARD A'
p313
(dp314
g3
I1892
sg4
g5
sg6
F1.0
sg7
F1.0
sg8
I30674
sg9
I01
sg10
I350000
sg11
F1.0
sg12
I58
sg13
I-235000
sg14
F1.0
sg15
g5
sg16
I1585
sg17
g5
sg18
I49
sg19
I307895
sg20
g5
sg21
I1000000
sg22
F1.0
sg23
I2502063
sg24
F1.0
sg25
I12
sg26
I2502063
sg27
F0.0
sg28
I415189
sg29
I1868758
sg30
F1.0
sg31
g5
ssS'TAYLOR MITCHELL S'
p315
(dp316
g3
I533
sg4
I227449
sg6
F1.0
sg7
F1.0
sg8
g5
sg9
I00
sg10
g5
sg11
F0.0
sg12
I0
sg13
g5
sg14
F0.0
sg15
g5
sg16
I300
sg17
g5
sg18
I29
sg19
g5
sg20
g5
sg21
I600000
sg22
F1.0
sg23
I3745048
sg24
F1.0
sg25
I0
sg26
I563798
sg27
F1.0
sg28
I265214
sg29
I1092663
sg30
F1.0
sg31
I3181250
ssS'DONAHUE JR JEFFREY M'
p317
(dp318
g3
I865
sg4
g5
sg6
F1.0
sg7
F1.0
sg8
I96268
sg9
I00
sg10
g5
sg11
F1.0
sg12
I188
sg13
I-300000
sg14
F1.0
sg15
g5
sg16
I772
sg17
g5
sg18
I22
sg19
I891
sg20
g5
sg21
I800000
sg22
F1.0
sg23
I1080988
sg24
F1.0
sg25
I11
sg26
I315068
sg27
F1.0
sg28
I278601
sg29
I875760
sg30
F1.0
sg31
I765920
ssS'GLISAN JR BEN F'
p319
(dp320
g3
I873
sg4
g5
sg6
F1.0
sg7
F1.0
sg8
I125978
sg9
I01
sg10
I71023
sg11
F1.0
sg12
I52
sg13
g5
sg14
F1.0
sg15
g5
sg16
I874
sg17
g5
sg18
I16
sg19
I200308
sg20
g5
sg21
I600000
sg22
F1.0
sg23
I778546
sg24
F1.0
sg25
I6
sg26
I393818
sg27
F1.0
sg28
I274975
sg29
I1272284
sg30
F1.0
sg31
I384728
ss.